target datalayout = "e-m:e-p270:32:32-p271:32:32-p272:64:64-i64:64-i128:128-f80:128-n8:16:32:64-S128"
target triple = "x86_64-pc-linux-gnu"

%struct.PaUtilRingBuffer = type { i64, i64, i64, i64, i64, i64, ptr }

; Function Attrs: nounwind uwtable
define i64 @PaUtil_AdvanceRingBufferWriteIndex(ptr noundef %0, i64 noundef %1) #0 {
  %3 = alloca ptr, align 8
  %4 = alloca i64, align 8
  store ptr %0, ptr %3, align 8, !tbaa !3
  store i64 %1, ptr %4, align 8, !tbaa !8
  fence seq_cst
  %5 = load ptr, ptr %3, align 8, !tbaa !3
  %6 = getelementptr inbounds nuw %struct.PaUtilRingBuffer, ptr %5, i32 0, i32 1
  %7 = load volatile i64, ptr %6, align 8, !tbaa !19
  %8 = load i64, ptr %4, align 8, !tbaa !8
  %9 = add nsw i64 %7, %8
  %10 = load ptr, ptr %3, align 8, !tbaa !3
  %11 = getelementptr inbounds nuw %struct.PaUtilRingBuffer, ptr %10, i32 0, i32 3
  %12 = load i64, ptr %11, align 8, !tbaa !15
  %13 = and i64 %9, %12
  %14 = load ptr, ptr %3, align 8, !tbaa !3
  %15 = getelementptr inbounds nuw %struct.PaUtilRingBuffer, ptr %14, i32 0, i32 1
  store volatile i64 %13, ptr %15, align 8, !tbaa !19
  ret i64 %13
}